target datalayout = "e-m:e-p270:32:32-p271:32:32-p272:64:64-i64:64-i128:128-f80:128-n8:16:32:64-S128"
target triple = "x86_64-pc-linux-gnu"

%struct.FunctionCallInfoBaseData = type { ptr, ptr, ptr, i32, i8, i16, [0 x %struct.NullableDatum] }
%struct.NullableDatum = type { i64, i8 }
%struct.TSQueryData = type { i32, i32, [0 x i8] }
%struct.anon = type { i32, [0 x i8] }

; Function Attrs: inlinehint nounwind uwtable
define internal i64 @BoolGetDatum(i1 noundef zeroext %0) #2 {
  %2 = alloca i8, align 1
  %3 = zext i1 %0 to i8
  store i8 %3, ptr %2, align 1
  %4 = load i8, ptr %2, align 1, !range !4, !noundef !5
  %5 = trunc i8 %4 to i1
  %6 = select i1 %5, i32 1, i32 0
  %7 = sext i32 %6 to i64
  ret i64 %7
}

; Function Attrs: inlinehint nounwind uwtable
define internal ptr @DatumGetPointer(i64 noundef %0) #2 {
  %2 = alloca i64, align 8
  store i64 %0, ptr %2, align 8
  %3 = load i64, ptr %2, align 8
  %4 = inttoptr i64 %3 to ptr
  ret ptr %4
}

; Function Attrs: nounwind uwtable
define internal i32 @CompareTSQ(ptr noundef %0, ptr noundef %1) #0 {
  %3 = alloca i32, align 4
  %4 = alloca ptr, align 8
  %5 = alloca ptr, align 8
  %6 = alloca ptr, align 8
  %7 = alloca ptr, align 8
  %8 = alloca i32, align 4
  store ptr %0, ptr %4, align 8
  store ptr %1, ptr %5, align 8
  %9 = load ptr, ptr %4, align 8
  %10 = getelementptr inbounds nuw %struct.TSQueryData, ptr %9, i32 0, i32 1
  %11 = load i32, ptr %10, align 4
  %12 = load ptr, ptr %5, align 8
  %13 = getelementptr inbounds nuw %struct.TSQueryData, ptr %12, i32 0, i32 1
  %14 = load i32, ptr %13, align 4
  %15 = icmp ne i32 %11, %14
  br i1 %15, label %16, label %25

16:                                               ; preds = %2
  %17 = load ptr, ptr %4, align 8
  %18 = getelementptr inbounds nuw %struct.TSQueryData, ptr %17, i32 0, i32 1
  %19 = load i32, ptr %18, align 4
  %20 = load ptr, ptr %5, align 8
  %21 = getelementptr inbounds nuw %struct.TSQueryData, ptr %20, i32 0, i32 1
  %22 = load i32, ptr %21, align 4
  %23 = icmp slt i32 %19, %22
  %24 = select i1 %23, i32 -1, i32 1
  store i32 %24, ptr %3, align 4
  br label %87

25:                                               ; preds = %2
  %26 = load ptr, ptr %4, align 8
  %27 = getelementptr inbounds nuw %struct.anon, ptr %26, i32 0, i32 0
  %28 = load i32, ptr %27, align 4
  %29 = lshr i32 %28, 2
  %30 = and i32 %29, 1073741823
  %31 = load ptr, ptr %5, align 8
  %32 = getelementptr inbounds nuw %struct.anon, ptr %31, i32 0, i32 0
  %33 = load i32, ptr %32, align 4
  %34 = lshr i32 %33, 2
  %35 = and i32 %34, 1073741823
  %36 = icmp ne i32 %30, %35
  br i1 %36, label %37, label %50

37:                                               ; preds = %25
  %38 = load ptr, ptr %4, align 8
  %39 = getelementptr inbounds nuw %struct.anon, ptr %38, i32 0, i32 0
  %40 = load i32, ptr %39, align 4
  %41 = lshr i32 %40, 2
  %42 = and i32 %41, 1073741823
  %43 = load ptr, ptr %5, align 8
  %44 = getelementptr inbounds nuw %struct.anon, ptr %43, i32 0, i32 0
  %45 = load i32, ptr %44, align 4
  %46 = lshr i32 %45, 2
  %47 = and i32 %46, 1073741823
  %48 = icmp ult i32 %42, %47
  %49 = select i1 %48, i32 -1, i32 1
  store i32 %49, ptr %3, align 4
  br label %87

50:                                               ; preds = %25
  %51 = load ptr, ptr %4, align 8
  %52 = getelementptr inbounds nuw %struct.TSQueryData, ptr %51, i32 0, i32 1
  %53 = load i32, ptr %52, align 4
  %54 = icmp ne i32 %53, 0
  br i1 %54, label %55, label %84

55:                                               ; preds = %50
  call void @llvm.lifetime.start.p0(i64 8, ptr %6) #7
  %56 = load ptr, ptr %4, align 8
  %57 = getelementptr inbounds nuw i8, ptr %56, i64 8
  %58 = load ptr, ptr %4, align 8
  %59 = getelementptr inbounds nuw i8, ptr %58, i64 8
  %60 = load ptr, ptr %4, align 8
  %61 = getelementptr inbounds nuw %struct.TSQueryData, ptr %60, i32 0, i32 1
  %62 = load i32, ptr %61, align 4
  %63 = sext i32 %62 to i64
  %64 = mul i64 %63, 12
  %65 = getelementptr inbounds nuw i8, ptr %59, i64 %64
  %66 = call ptr @QT2QTN(ptr noundef %57, ptr noundef %65)
  store ptr %66, ptr %6, align 8
  call void @llvm.lifetime.start.p0(i64 8, ptr %7) #7
  %67 = load ptr, ptr %5, align 8
  %68 = getelementptr inbounds nuw i8, ptr %67, i64 8
  %69 = load ptr, ptr %5, align 8
  %70 = getelementptr inbounds nuw i8, ptr %69, i64 8
  %71 = load ptr, ptr %5, align 8
  %72 = getelementptr inbounds nuw %struct.TSQueryData, ptr %71, i32 0, i32 1
  %73 = load i32, ptr %72, align 4
  %74 = sext i32 %73 to i64
  %75 = mul i64 %74, 12
  %76 = getelementptr inbounds nuw i8, ptr %70, i64 %75
  %77 = call ptr @QT2QTN(ptr noundef %68, ptr noundef %76)
  store ptr %77, ptr %7, align 8
  call void @llvm.lifetime.start.p0(i64 4, ptr %8) #7
  %78 = load ptr, ptr %6, align 8
  %79 = load ptr, ptr %7, align 8
  %80 = call i32 @QTNodeCompare(ptr noundef %78, ptr noundef %79)
  store i32 %80, ptr %8, align 4
  %81 = load ptr, ptr %6, align 8
  call void @QTNFree(ptr noundef %81)
  %82 = load ptr, ptr %7, align 8
  call void @QTNFree(ptr noundef %82)
  %83 = load i32, ptr %8, align 4
  store i32 %83, ptr %3, align 4
  call void @llvm.lifetime.end.p0(i64 4, ptr %8) #7
  call void @llvm.lifetime.end.p0(i64 8, ptr %7) #7
  call void @llvm.lifetime.end.p0(i64 8, ptr %6) #7
  br label %87

84:                                               ; preds = %50
  br label %85

85:                                               ; preds = %84
  br label %86

86:                                               ; preds = %85
  store i32 0, ptr %3, align 4
  br label %87

87:                                               ; preds = %86, %55, %37, %16
  %88 = load i32, ptr %3, align 4
  ret i32 %88
}

; Function Attrs: inlinehint nounwind uwtable
define internal ptr @DatumGetTSQueryCopy(i64 noundef %0) #2 {
  %2 = alloca i64, align 8
  store i64 %0, ptr %2, align 8
  %3 = load i64, ptr %2, align 8
  %4 = call ptr @DatumGetPointer(i64 noundef %3)
  %5 = call ptr @pg_detoast_datum_copy(ptr noundef %4)
  ret ptr %5
}

; Function Attrs: nounwind uwtable
define dso_local i64 @tsquery_eq(ptr noundef %0) #0 {
  %2 = alloca ptr, align 8
  %3 = alloca ptr, align 8
  %4 = alloca ptr, align 8
  %5 = alloca i32, align 4
  store ptr %0, ptr %2, align 8
  call void @llvm.lifetime.start.p0(i64 8, ptr %3) #7
  %6 = load ptr, ptr %2, align 8
  %7 = getelementptr inbounds nuw %struct.FunctionCallInfoBaseData, ptr %6, i32 0, i32 6
  %8 = getelementptr inbounds [0 x %struct.NullableDatum], ptr %7, i64 0, i64 0
  %9 = getelementptr inbounds nuw %struct.NullableDatum, ptr %8, i32 0, i32 0
  %10 = load i64, ptr %9, align 8
  %11 = call ptr @DatumGetTSQueryCopy(i64 noundef %10)
  store ptr %11, ptr %3, align 8
  call void @llvm.lifetime.start.p0(i64 8, ptr %4) #7
  %12 = load ptr, ptr %2, align 8
  %13 = getelementptr inbounds nuw %struct.FunctionCallInfoBaseData, ptr %12, i32 0, i32 6
  %14 = getelementptr inbounds [0 x %struct.NullableDatum], ptr %13, i64 0, i64 1
  %15 = getelementptr inbounds nuw %struct.NullableDatum, ptr %14, i32 0, i32 0
  %16 = load i64, ptr %15, align 8
  %17 = call ptr @DatumGetTSQueryCopy(i64 noundef %16)
  store ptr %17, ptr %4, align 8
  call void @llvm.lifetime.start.p0(i64 4, ptr %5) #7
  %18 = load ptr, ptr %3, align 8
  %19 = load ptr, ptr %4, align 8
  %20 = call i32 @CompareTSQ(ptr noundef %18, ptr noundef %19)
  store i32 %20, ptr %5, align 4
  br label %21

21:                                               ; preds = %1
  %22 = load ptr, ptr %3, align 8
  %23 = load ptr, ptr %2, align 8
  %24 = getelementptr inbounds nuw %struct.FunctionCallInfoBaseData, ptr %23, i32 0, i32 6
  %25 = getelementptr inbounds [0 x %struct.NullableDatum], ptr %24, i64 0, i64 0
  %26 = getelementptr inbounds nuw %struct.NullableDatum, ptr %25, i32 0, i32 0
  %27 = load i64, ptr %26, align 8
  %28 = call ptr @DatumGetPointer(i64 noundef %27)
  %29 = icmp ne ptr %22, %28
  br i1 %29, label %30, label %32

30:                                               ; preds = %21
  %31 = load ptr, ptr %3, align 8
  call void @pfree(ptr noundef %31)
  br label %32

32:                                               ; preds = %30, %21
  br label %33

33:                                               ; preds = %32
  br label %34

34:                                               ; preds = %33
  br label %35

35:                                               ; preds = %34
  %36 = load ptr, ptr %4, align 8
  %37 = load ptr, ptr %2, align 8
  %38 = getelementptr inbounds nuw %struct.FunctionCallInfoBaseData, ptr %37, i32 0, i32 6
  %39 = getelementptr inbounds [0 x %struct.NullableDatum], ptr %38, i64 0, i64 1
  %40 = getelementptr inbounds nuw %struct.NullableDatum, ptr %39, i32 0, i32 0
  %41 = load i64, ptr %40, align 8
  %42 = call ptr @DatumGetPointer(i64 noundef %41)
  %43 = icmp ne ptr %36, %42
  br i1 %43, label %44, label %46

44:                                               ; preds = %35
  %45 = load ptr, ptr %4, align 8
  call void @pfree(ptr noundef %45)
  br label %46

46:                                               ; preds = %44, %35
  br label %47

47:                                               ; preds = %46
  br label %48

48:                                               ; preds = %47
  %49 = load i32, ptr %5, align 4
  %50 = icmp eq i32 %49, 0
  %51 = call i64 @BoolGetDatum(i1 noundef zeroext %50)
  call void @llvm.lifetime.end.p0(i64 4, ptr %5) #7
  call void @llvm.lifetime.end.p0(i64 8, ptr %4) #7
  call void @llvm.lifetime.end.p0(i64 8, ptr %3) #7
  ret i64 %51
}